target datalayout = "e-m:e-p270:32:32-p271:32:32-p272:64:64-i64:64-i128:128-f80:128-n8:16:32:64-S128"
target triple = "x86_64-pc-linux-gnu"

%"class.g2o::OptimizationAlgorithmLevenberg" = type { %"class.g2o::OptimizationAlgorithmWithHessian", ptr, ptr, double, double, double, double, double, i32, %"class.std::unique_ptr" }
%"class.g2o::OptimizationAlgorithmWithHessian" = type { %"class.g2o::OptimizationAlgorithm", ptr, ptr }
%"class.g2o::OptimizationAlgorithm" = type { ptr, ptr, %"class.g2o::PropertyMap" }
%"class.g2o::PropertyMap" = type { %"class.std::map" }
%"class.std::map" = type { %"class.std::_Rb_tree" }
%"class.std::_Rb_tree" = type { %"struct.std::_Rb_tree<std::__cxx11::basic_string<char>, std::pair<const std::__cxx11::basic_string<char>, g2o::BaseProperty *>, std::_Select1st<std::pair<const std::__cxx11::basic_string<char>, g2o::BaseProperty *>>, std::less<std::__cxx11::basic_string<char>>>::_Rb_tree_impl" }
%"struct.std::_Rb_tree<std::__cxx11::basic_string<char>, std::pair<const std::__cxx11::basic_string<char>, g2o::BaseProperty *>, std::_Select1st<std::pair<const std::__cxx11::basic_string<char>, g2o::BaseProperty *>>, std::less<std::__cxx11::basic_string<char>>>::_Rb_tree_impl" = type { [8 x i8], %"struct.std::_Rb_tree_header" }
%"struct.std::_Rb_tree_header" = type { %"struct.std::_Rb_tree_node_base", i64 }
%"struct.std::_Rb_tree_node_base" = type { i32, ptr, ptr, ptr }
%"class.std::unique_ptr" = type { %"struct.std::__uniq_ptr_data" }
%"struct.std::__uniq_ptr_data" = type { %"class.std::__uniq_ptr_impl" }
%"class.std::__uniq_ptr_impl" = type { %"class.std::tuple" }
%"class.std::tuple" = type { %"struct.std::_Tuple_impl" }
%"struct.std::_Tuple_impl" = type { %"struct.std::_Head_base.2" }
%"struct.std::_Head_base.2" = type { ptr }
%"class.g2o::Solver" = type { ptr, ptr, ptr, ptr, i64, i64, i8, i64 }

; Function Attrs: mustprogress nounwind uwtable
define linkonce_odr noundef ptr @_ZN3g2o6Solver1bEv(ptr noundef nonnull align 8 dereferenceable(64) %0) #1 comdat align 2 {
  %2 = alloca ptr, align 8
  store ptr %0, ptr %2, align 8, !tbaa !78
  %3 = load ptr, ptr %2, align 8
  %4 = getelementptr inbounds nuw %"class.g2o::Solver", ptr %3, i32 0, i32 3
  %5 = load ptr, ptr %4, align 8, !tbaa !171
  ret ptr %5
}

; Function Attrs: mustprogress nounwind uwtable
define linkonce_odr noundef ptr @_ZN3g2o6Solver1xEv(ptr noundef nonnull align 8 dereferenceable(64) %0) #1 comdat align 2 {
  %2 = alloca ptr, align 8
  store ptr %0, ptr %2, align 8, !tbaa !78
  %3 = load ptr, ptr %2, align 8
  %4 = getelementptr inbounds nuw %"class.g2o::Solver", ptr %3, i32 0, i32 2
  %5 = load ptr, ptr %4, align 8, !tbaa !100
  ret ptr %5
}

; Function Attrs: mustprogress nounwind uwtable
define linkonce_odr noundef i64 @_ZNK3g2o6Solver10vectorSizeEv(ptr noundef nonnull align 8 dereferenceable(64) %0) #1 comdat align 2 {
  %2 = alloca ptr, align 8
  store ptr %0, ptr %2, align 8, !tbaa !78
  %3 = load ptr, ptr %2, align 8
  %4 = getelementptr inbounds nuw %"class.g2o::Solver", ptr %3, i32 0, i32 4
  %5 = load i64, ptr %4, align 8, !tbaa !170
  ret i64 %5
}

; Function Attrs: mustprogress uwtable
define noundef double @_ZNK3g2o30OptimizationAlgorithmLevenberg12computeScaleEv(ptr noundef nonnull align 8 dereferenceable(152) %0) #3 align 2 {
  %2 = alloca ptr, align 8
  %3 = alloca double, align 8
  %4 = alloca i64, align 8
  store ptr %0, ptr %2, align 8, !tbaa !14
  %5 = load ptr, ptr %2, align 8
  call void @llvm.lifetime.start.p0(i64 8, ptr %3) #6
  store double 0.000000e+00, ptr %3, align 8, !tbaa !53
  call void @llvm.lifetime.start.p0(i64 8, ptr %4) #6
  store i64 0, ptr %4, align 8, !tbaa !95
  br label %6

6:                                                ; preds = %37, %1
  %7 = load i64, ptr %4, align 8, !tbaa !95
  %8 = getelementptr inbounds nuw %"class.g2o::OptimizationAlgorithmWithHessian", ptr %5, i32 0, i32 1
  %9 = load ptr, ptr %8, align 8, !tbaa !83
  %10 = call noundef i64 @_ZNK3g2o6Solver10vectorSizeEv(ptr noundef nonnull align 8 dereferenceable(64) %9)
  %11 = icmp ult i64 %7, %10
  br i1 %11, label %13, label %12

12:                                               ; preds = %6
  call void @llvm.lifetime.end.p0(i64 8, ptr %4) #6
  br label %40

13:                                               ; preds = %6
  %14 = getelementptr inbounds nuw %"class.g2o::OptimizationAlgorithmWithHessian", ptr %5, i32 0, i32 1
  %15 = load ptr, ptr %14, align 8, !tbaa !83
  %16 = call noundef ptr @_ZN3g2o6Solver1xEv(ptr noundef nonnull align 8 dereferenceable(64) %15)
  %17 = load i64, ptr %4, align 8, !tbaa !95
  %18 = getelementptr inbounds nuw double, ptr %16, i64 %17
  %19 = load double, ptr %18, align 8, !tbaa !53
  %20 = getelementptr inbounds nuw %"class.g2o::OptimizationAlgorithmLevenberg", ptr %5, i32 0, i32 3
  %21 = load double, ptr %20, align 8, !tbaa !20
  %22 = getelementptr inbounds nuw %"class.g2o::OptimizationAlgorithmWithHessian", ptr %5, i32 0, i32 1
  %23 = load ptr, ptr %22, align 8, !tbaa !83
  %24 = call noundef ptr @_ZN3g2o6Solver1xEv(ptr noundef nonnull align 8 dereferenceable(64) %23)
  %25 = load i64, ptr %4, align 8, !tbaa !95
  %26 = getelementptr inbounds nuw double, ptr %24, i64 %25
  %27 = load double, ptr %26, align 8, !tbaa !53
  %28 = getelementptr inbounds nuw %"class.g2o::OptimizationAlgorithmWithHessian", ptr %5, i32 0, i32 1
  %29 = load ptr, ptr %28, align 8, !tbaa !83
  %30 = call noundef ptr @_ZN3g2o6Solver1bEv(ptr noundef nonnull align 8 dereferenceable(64) %29)
  %31 = load i64, ptr %4, align 8, !tbaa !95
  %32 = getelementptr inbounds nuw double, ptr %30, i64 %31
  %33 = load double, ptr %32, align 8, !tbaa !53
  %34 = call double @llvm.fmuladd.f64(double %21, double %27, double %33)
  %35 = load double, ptr %3, align 8, !tbaa !53
  %36 = call double @llvm.fmuladd.f64(double %19, double %34, double %35)
  store double %36, ptr %3, align 8, !tbaa !53
  br label %37

37:                                               ; preds = %13
  %38 = load i64, ptr %4, align 8, !tbaa !95
  %39 = add i64 %38, 1
  store i64 %39, ptr %4, align 8, !tbaa !95
  br label %6, !llvm.loop !102

40:                                               ; preds = %12
  %41 = load double, ptr %3, align 8, !tbaa !53
  call void @llvm.lifetime.end.p0(i64 8, ptr %3) #6
  ret double %41
}