; Function Attrs: mustprogress nofree norecurse nosync nounwind willreturn memory(read, inaccessiblemem: none) uwtable
define noundef double @_ZNK3g2o30OptimizationAlgorithmLevenberg12computeScaleEv(ptr noundef nonnull readonly align 8 captures(none) dereferenceable(152) %0) local_unnamed_addr #7 align 2 {
  %2 = getelementptr inbounds nuw i8, ptr %0, i64 64
  %3 = load ptr, ptr %2, align 8, !tbaa !66
  %4 = getelementptr inbounds nuw i8, ptr %3, i64 32
  %5 = load i64, ptr %4, align 8, !tbaa !102
  %.not = icmp eq i64 %5, 0
  br i1 %.not, label %._crit_edge, label %.lr.ph

.lr.ph:                                           ; preds = %1
  %6 = getelementptr inbounds nuw i8, ptr %3, i64 16
  %7 = load ptr, ptr %6, align 8, !tbaa !98
  %8 = getelementptr inbounds nuw i8, ptr %0, i64 96
  %9 = load double, ptr %8, align 8, !tbaa !10
  %10 = getelementptr inbounds nuw i8, ptr %3, i64 24
  %11 = load ptr, ptr %10, align 8, !tbaa !103
  br label %12

._crit_edge:                                      ; preds = %12, %1
  %.07.lcssa = phi double [ 0.000000e+00, %1 ], [ %18, %12 ]
  ret double %.07.lcssa

12:                                               ; preds = %.lr.ph, %12
  %.09 = phi i64 [ 0, %.lr.ph ], [ %19, %12 ]
  %.078 = phi double [ 0.000000e+00, %.lr.ph ], [ %18, %12 ]
  %13 = getelementptr inbounds nuw double, ptr %7, i64 %.09
  %14 = load double, ptr %13, align 8, !tbaa !48
  %15 = getelementptr inbounds nuw double, ptr %11, i64 %.09
  %16 = load double, ptr %15, align 8, !tbaa !48
  %17 = tail call double @llvm.fmuladd.f64(double %9, double %14, double %16)
  %18 = tail call double @llvm.fmuladd.f64(double %14, double %17, double %.078)
  %19 = add nuw i64 %.09, 1
  %exitcond.not = icmp eq i64 %19, %5
  br i1 %exitcond.not, label %._crit_edge, label %12, !llvm.loop !104
}